; Function Attrs: mustprogress nofree nounwind willreturn memory(argmem: write, inaccessiblemem: readwrite) uwtable
define void @Aig_ManReprStart(ptr noundef writeonly captures(none) initializes((256, 268)) %0, i32 noundef %1) local_unnamed_addr #0 {
  %3 = getelementptr inbounds nuw i8, ptr %0, i64 264
  store i32 %1, ptr %3, align 8
  %4 = sext i32 %1 to i64
  %5 = shl nsw i64 %4, 3
  %calloc = tail call ptr @calloc(i64 1, i64 %5)
  %6 = getelementptr inbounds nuw i8, ptr %0, i64 256
  store ptr %calloc, ptr %6, align 8
  ret void
}